target datalayout = "e-m:e-p270:32:32-p271:32:32-p272:64:64-i64:64-i128:128-f80:128-n8:16:32:64-S128"
target triple = "x86_64-pc-linux-gnu"

; Function Attrs: nounwind uwtable
define internal i32 @zueci_ksx1001_u(ptr noundef %0, i32 noundef %1, i32 noundef %2, ptr noundef %3) #0 {
  %5 = alloca i32, align 4
  %6 = alloca ptr, align 8
  %7 = alloca i32, align 4
  %8 = alloca i32, align 4
  %9 = alloca ptr, align 8
  %10 = alloca i8, align 1
  %11 = alloca i8, align 1
  %12 = alloca i32, align 4
  %13 = alloca i32, align 4
  store ptr %0, ptr %6, align 8
  store i32 %1, ptr %7, align 4
  store i32 %2, ptr %8, align 4
  store ptr %3, ptr %9, align 8
  %14 = load ptr, ptr %6, align 8
  %15 = getelementptr inbounds i8, ptr %14, i64 0
  %16 = load i8, ptr %15, align 1
  store i8 %16, ptr %10, align 1
  %17 = load i8, ptr %10, align 1
  %18 = zext i8 %17 to i32
  %19 = icmp slt i32 %18, 128
  br i1 %19, label %20, label %24

20:                                               ; preds = %4
  %21 = load i8, ptr %10, align 1
  %22 = zext i8 %21 to i32
  %23 = load ptr, ptr %9, align 8
  store i32 %22, ptr %23, align 4
  store i32 1, ptr %5, align 4
  br label %90

24:                                               ; preds = %4
  %25 = load i32, ptr %7, align 4
  %26 = icmp ult i32 %25, 2
  br i1 %26, label %47, label %27

27:                                               ; preds = %24
  %28 = load i8, ptr %10, align 1
  %29 = zext i8 %28 to i32
  %30 = icmp slt i32 %29, 161
  br i1 %30, label %47, label %31

31:                                               ; preds = %27
  %32 = load i8, ptr %10, align 1
  %33 = zext i8 %32 to i32
  %34 = icmp sgt i32 %33, 172
  br i1 %34, label %35, label %39

35:                                               ; preds = %31
  %36 = load i8, ptr %10, align 1
  %37 = zext i8 %36 to i32
  %38 = icmp slt i32 %37, 176
  br i1 %38, label %47, label %39

39:                                               ; preds = %35, %31
  %40 = load i8, ptr %10, align 1
  %41 = zext i8 %40 to i32
  %42 = icmp eq i32 %41, 201
  br i1 %42, label %47, label %43

43:                                               ; preds = %39
  %44 = load i8, ptr %10, align 1
  %45 = zext i8 %44 to i32
  %46 = icmp sgt i32 %45, 253
  br i1 %46, label %47, label %48

47:                                               ; preds = %43, %39, %35, %27, %24
  store i32 0, ptr %5, align 4
  br label %90

48:                                               ; preds = %43
  %49 = load ptr, ptr %6, align 8
  %50 = getelementptr inbounds i8, ptr %49, i64 1
  %51 = load i8, ptr %50, align 1
  store i8 %51, ptr %11, align 1
  %52 = load i8, ptr %11, align 1
  %53 = zext i8 %52 to i32
  %54 = icmp slt i32 %53, 161
  br i1 %54, label %59, label %55

55:                                               ; preds = %48
  %56 = load i8, ptr %11, align 1
  %57 = zext i8 %56 to i32
  %58 = icmp eq i32 %57, 255
  br i1 %58, label %59, label %60

59:                                               ; preds = %55, %48
  store i32 0, ptr %5, align 4
  br label %90

60:                                               ; preds = %55
  %61 = load i8, ptr %10, align 1
  %62 = zext i8 %61 to i32
  %63 = sub nsw i32 %62, 161
  %64 = load i8, ptr %10, align 1
  %65 = zext i8 %64 to i32
  %66 = icmp sgt i32 %65, 172
  %67 = zext i1 %66 to i32
  %68 = mul nsw i32 %67, 3
  %69 = sub nsw i32 %63, %68
  %70 = load i8, ptr %10, align 1
  %71 = zext i8 %70 to i32
  %72 = icmp sgt i32 %71, 201
  %73 = zext i1 %72 to i32
  %74 = sub nsw i32 %69, %73
  %75 = mul nsw i32 94, %74
  %76 = load i8, ptr %11, align 1
  %77 = zext i8 %76 to i32
  %78 = add nsw i32 %75, %77
  %79 = sub nsw i32 %78, 161
  store i32 %79, ptr %12, align 4
  %80 = load i32, ptr %12, align 4
  %81 = sext i32 %80 to i64
  %82 = getelementptr inbounds [8366 x i16], ptr @zueci_ksx1001_mb_u, i64 0, i64 %81
  %83 = load i16, ptr %82, align 2
  %84 = zext i16 %83 to i32
  store i32 %84, ptr %13, align 4
  %85 = icmp ne i32 %84, 0
  br i1 %85, label %86, label %89

86:                                               ; preds = %60
  %87 = load i32, ptr %13, align 4
  %88 = load ptr, ptr %9, align 8
  store i32 %87, ptr %88, align 4
  store i32 2, ptr %5, align 4
  br label %90

89:                                               ; preds = %60
  store i32 0, ptr %5, align 4
  br label %90

90:                                               ; preds = %89, %86, %59, %47, %20
  %91 = load i32, ptr %5, align 4
  ret i32 %91
}