; Function Attrs: mustprogress nofree norecurse nosync nounwind willreturn memory(argmem: readwrite) uwtable
define internal noundef i32 @zueci_ksx1001_u(ptr nocapture noundef readonly %0, i32 noundef %1, i32 %2, ptr nocapture noundef writeonly %3) #6 {
  %5 = load i8, ptr %0, align 1
  %6 = zext i8 %5 to i32
  %7 = icmp sgt i8 %5, -1
  br i1 %7, label %.sink.split, label %8

8:                                                ; preds = %4
  %9 = icmp ult i32 %1, 2
  %10 = icmp ult i8 %5, -95
  %or.cond = or i1 %9, %10
  br i1 %or.cond, label %31, label %11

11:                                               ; preds = %8
  %12 = icmp ugt i8 %5, -84
  switch i8 %5, label %13 [
    i8 -1, label %31
    i8 -2, label %31
    i8 -55, label %31
    i8 -81, label %31
    i8 -82, label %31
    i8 -83, label %31
  ]

13:                                               ; preds = %11
  %14 = getelementptr inbounds i8, ptr %0, i64 1
  %15 = load i8, ptr %14, align 1
  %16 = add i8 %15, 1
  %or.cond14 = icmp ult i8 %16, -94
  br i1 %or.cond14, label %31, label %17

17:                                               ; preds = %13
  %18 = zext i8 %15 to i32
  %19 = add nsw i32 %6, -161
  %.neg = select i1 %12, i32 -3, i32 0
  %20 = add nsw i32 %19, %.neg
  %21 = icmp ugt i8 %5, -55
  %.neg37 = sext i1 %21 to i32
  %22 = add nsw i32 %20, %.neg37
  %23 = mul nsw i32 %22, 94
  %24 = add nsw i32 %23, -161
  %25 = add nsw i32 %24, %18
  %26 = sext i32 %25 to i64
  %27 = getelementptr inbounds [8366 x i16], ptr @zueci_ksx1001_mb_u, i64 0, i64 %26
  %28 = load i16, ptr %27, align 2
  %.not = icmp eq i16 %28, 0
  br i1 %.not, label %31, label %29

29:                                               ; preds = %17
  %30 = zext i16 %28 to i32
  br label %.sink.split

.sink.split:                                      ; preds = %4, %29
  %.sink = phi i32 [ %30, %29 ], [ %6, %4 ]
  %.0.ph = phi i32 [ 2, %29 ], [ 1, %4 ]
  store i32 %.sink, ptr %3, align 4
  br label %31

31:                                               ; preds = %.sink.split, %17, %13, %8, %11, %11, %11, %11, %11, %11
  %.0 = phi i32 [ 0, %11 ], [ 0, %11 ], [ 0, %11 ], [ 0, %11 ], [ 0, %11 ], [ 0, %11 ], [ 0, %8 ], [ 0, %13 ], [ 0, %17 ], [ %.0.ph, %.sink.split ]
  ret i32 %.0
}